target datalayout = "e-m:e-p270:32:32-p271:32:32-p272:64:64-i64:64-i128:128-f80:128-n8:16:32:64-S128"
target triple = "x86_64-pc-linux-gnu"

%struct._ffi_type = type { i64, i16, i16, ptr }
%struct._object = type { %union.anon, ptr }
%union.anon = type { i64 }
%struct.ctypes_state = type { ptr, ptr, ptr, ptr, ptr, ptr, ptr, ptr, ptr, ptr, ptr, ptr, ptr, ptr, ptr, ptr, ptr, ptr, ptr, ptr, ptr, ptr, ptr, ptr, ptr }
%struct.StgInfo = type { i32, i64, i64, i64, %struct._ffi_type, ptr, ptr, ptr, ptr, ptr, ptr, ptr, ptr, ptr, i32, ptr, i32, ptr }
%struct.tagCDataObject = type { %struct._object, ptr, i32, ptr, i64, i64, i64, ptr, %union.value }
%union.value = type { x86_fp80 }
%struct.PyModuleObject = type { %struct._object, ptr, ptr, ptr, ptr, ptr }

@_Py_NoneStruct = external global %struct._object, align 8
@PyExc_TypeError = external global ptr, align 8
@.str.66 = private unnamed_addr constant [10 x i8] c"On:resize\00", align 1
@.str.67 = private unnamed_addr constant [25 x i8] c"expected ctypes instance\00", align 1
@PyExc_ValueError = external global ptr, align 8
@.str.68 = private unnamed_addr constant [20 x i8] c"minimum size is %zd\00", align 1
@.str.69 = private unnamed_addr constant [60 x i8] c"Memory cannot be resized because this object doesn't own it\00", align 1

; Function Attrs: inlinehint nounwind uwtable
define internal i32 @_stginfo_from_type(ptr noundef %0, ptr noundef %1, ptr noundef %2) #5 {
  %4 = alloca i32, align 4
  %5 = alloca ptr, align 8
  %6 = alloca ptr, align 8
  %7 = alloca ptr, align 8
  %8 = alloca ptr, align 8
  %9 = alloca i32, align 4
  store ptr %0, ptr %5, align 8, !tbaa !3
  store ptr %1, ptr %6, align 8, !tbaa !65
  store ptr %2, ptr %7, align 8, !tbaa !3
  %10 = load ptr, ptr %7, align 8, !tbaa !3
  store ptr null, ptr %10, align 8, !tbaa !3
  %11 = load ptr, ptr %6, align 8, !tbaa !65
  %12 = load ptr, ptr %5, align 8, !tbaa !3
  %13 = getelementptr inbounds nuw %struct.ctypes_state, ptr %12, i32 0, i32 5
  %14 = load ptr, ptr %13, align 8, !tbaa !87
  %15 = call i32 @PyObject_IsInstance(ptr noundef %11, ptr noundef %14)
  %16 = icmp ne i32 %15, 0
  br i1 %16, label %18, label %17

17:                                               ; preds = %3
  store i32 0, ptr %4, align 4
  br label %33

18:                                               ; preds = %3
  call void @llvm.lifetime.start.p0(i64 8, ptr %8) #10
  %19 = load ptr, ptr %6, align 8, !tbaa !65
  %20 = load ptr, ptr %5, align 8, !tbaa !3
  %21 = getelementptr inbounds nuw %struct.ctypes_state, ptr %20, i32 0, i32 5
  %22 = load ptr, ptr %21, align 8, !tbaa !87
  %23 = call ptr @PyObject_GetTypeData(ptr noundef %19, ptr noundef %22)
  store ptr %23, ptr %8, align 8, !tbaa !3
  %24 = load ptr, ptr %8, align 8, !tbaa !3
  %25 = getelementptr inbounds nuw %struct.StgInfo, ptr %24, i32 0, i32 0
  %26 = load i32, ptr %25, align 8, !tbaa !88
  %27 = icmp ne i32 %26, 0
  br i1 %27, label %29, label %28

28:                                               ; preds = %18
  store i32 0, ptr %4, align 4
  store i32 1, ptr %9, align 4
  br label %32

29:                                               ; preds = %18
  %30 = load ptr, ptr %8, align 8, !tbaa !3
  %31 = load ptr, ptr %7, align 8, !tbaa !3
  store ptr %30, ptr %31, align 8, !tbaa !3
  store i32 1, ptr %4, align 4
  store i32 1, ptr %9, align 4
  br label %32

32:                                               ; preds = %29, %28
  call void @llvm.lifetime.end.p0(i64 8, ptr %8) #10
  br label %33

33:                                               ; preds = %32, %17
  %34 = load i32, ptr %4, align 4
  ret i32 %34
}

; Function Attrs: inlinehint nounwind uwtable
define internal ptr @_Py_TYPE(ptr noundef %0) #5 {
  %2 = alloca ptr, align 8
  store ptr %0, ptr %2, align 8, !tbaa !9
  %3 = load ptr, ptr %2, align 8, !tbaa !9
  %4 = getelementptr inbounds nuw %struct._object, ptr %3, i32 0, i32 1
  %5 = load ptr, ptr %4, align 8, !tbaa !29
  ret ptr %5
}

; Function Attrs: inlinehint nounwind uwtable
define internal ptr @_PyModule_GetState(ptr noundef %0) #5 {
  %2 = alloca ptr, align 8
  store ptr %0, ptr %2, align 8, !tbaa !9
  %3 = load ptr, ptr %2, align 8, !tbaa !9
  %4 = getelementptr inbounds nuw %struct.PyModuleObject, ptr %3, i32 0, i32 3
  %5 = load ptr, ptr %4, align 8, !tbaa !91
  ret ptr %5
}

; Function Attrs: inlinehint nounwind uwtable
define internal i32 @PyStgInfo_FromObject(ptr noundef %0, ptr noundef %1, ptr noundef %2) #5 {
  %4 = alloca ptr, align 8
  %5 = alloca ptr, align 8
  %6 = alloca ptr, align 8
  store ptr %0, ptr %4, align 8, !tbaa !3
  store ptr %1, ptr %5, align 8, !tbaa !9
  store ptr %2, ptr %6, align 8, !tbaa !3
  %7 = load ptr, ptr %4, align 8, !tbaa !3
  %8 = load ptr, ptr %5, align 8, !tbaa !9
  %9 = call ptr @_Py_TYPE(ptr noundef %8)
  %10 = load ptr, ptr %6, align 8, !tbaa !3
  %11 = call i32 @_stginfo_from_type(ptr noundef %7, ptr noundef %9, ptr noundef %10)
  ret i32 %11
}

; Function Attrs: inlinehint nounwind uwtable
define internal ptr @get_module_state(ptr noundef %0) #5 {
  %2 = alloca ptr, align 8
  %3 = alloca ptr, align 8
  store ptr %0, ptr %2, align 8, !tbaa !9
  call void @llvm.lifetime.start.p0(i64 8, ptr %3) #10
  %4 = load ptr, ptr %2, align 8, !tbaa !9
  %5 = call ptr @_PyModule_GetState(ptr noundef %4)
  store ptr %5, ptr %3, align 8, !tbaa !3
  %6 = load ptr, ptr %3, align 8, !tbaa !3
  call void @llvm.lifetime.end.p0(i64 8, ptr %3) #10
  ret ptr %6
}

; Function Attrs: nounwind uwtable
define internal ptr @resize(ptr noundef %0, ptr noundef %1) #0 {
  %3 = alloca ptr, align 8
  %4 = alloca ptr, align 8
  %5 = alloca ptr, align 8
  %6 = alloca ptr, align 8
  %7 = alloca i64, align 8
  %8 = alloca i32, align 4
  %9 = alloca ptr, align 8
  %10 = alloca ptr, align 8
  %11 = alloca i32, align 4
  %12 = alloca ptr, align 8
  %13 = alloca ptr, align 8
  store ptr %0, ptr %4, align 8, !tbaa !9
  store ptr %1, ptr %5, align 8, !tbaa !9
  call void @llvm.lifetime.start.p0(i64 8, ptr %6) #10
  call void @llvm.lifetime.start.p0(i64 8, ptr %7) #10
  %14 = load ptr, ptr %5, align 8, !tbaa !9
  %15 = call i32 (ptr, ptr, ...) @PyArg_ParseTuple(ptr noundef %14, ptr noundef @.str.66, ptr noundef %6, ptr noundef %7)
  %16 = icmp ne i32 %15, 0
  br i1 %16, label %18, label %17

17:                                               ; preds = %2
  store ptr null, ptr %3, align 8
  store i32 1, ptr %8, align 4
  br label %113

18:                                               ; preds = %2
  call void @llvm.lifetime.start.p0(i64 8, ptr %9) #10
  %19 = load ptr, ptr %4, align 8, !tbaa !9
  %20 = call ptr @get_module_state(ptr noundef %19)
  store ptr %20, ptr %9, align 8, !tbaa !3
  call void @llvm.lifetime.start.p0(i64 8, ptr %10) #10
  call void @llvm.lifetime.start.p0(i64 4, ptr %11) #10
  %21 = load ptr, ptr %9, align 8, !tbaa !3
  %22 = load ptr, ptr %6, align 8, !tbaa !76
  %23 = call i32 @PyStgInfo_FromObject(ptr noundef %21, ptr noundef %22, ptr noundef %10)
  store i32 %23, ptr %11, align 4, !tbaa !30
  %24 = load i32, ptr %11, align 4, !tbaa !30
  %25 = icmp slt i32 %24, 0
  br i1 %25, label %26, label %27

26:                                               ; preds = %18
  store ptr null, ptr %3, align 8
  store i32 1, ptr %8, align 4
  br label %112

27:                                               ; preds = %18
  %28 = load ptr, ptr %10, align 8, !tbaa !3
  %29 = icmp eq ptr %28, null
  br i1 %29, label %30, label %32

30:                                               ; preds = %27
  %31 = load ptr, ptr @PyExc_TypeError, align 8, !tbaa !9
  call void @PyErr_SetString(ptr noundef %31, ptr noundef @.str.67)
  store ptr null, ptr %3, align 8
  store i32 1, ptr %8, align 4
  br label %112

32:                                               ; preds = %27
  %33 = load i64, ptr %7, align 8, !tbaa !32
  %34 = load ptr, ptr %10, align 8, !tbaa !3
  %35 = getelementptr inbounds nuw %struct.StgInfo, ptr %34, i32 0, i32 1
  %36 = load i64, ptr %35, align 8, !tbaa !60
  %37 = icmp slt i64 %33, %36
  br i1 %37, label %38, label %44

38:                                               ; preds = %32
  %39 = load ptr, ptr @PyExc_ValueError, align 8, !tbaa !9
  %40 = load ptr, ptr %10, align 8, !tbaa !3
  %41 = getelementptr inbounds nuw %struct.StgInfo, ptr %40, i32 0, i32 1
  %42 = load i64, ptr %41, align 8, !tbaa !60
  %43 = call ptr (ptr, ptr, ...) @PyErr_Format(ptr noundef %39, ptr noundef @.str.68, i64 noundef %42)
  store ptr null, ptr %3, align 8
  store i32 1, ptr %8, align 4
  br label %112

44:                                               ; preds = %32
  %45 = load ptr, ptr %6, align 8, !tbaa !76
  %46 = getelementptr inbounds nuw %struct.tagCDataObject, ptr %45, i32 0, i32 2
  %47 = load i32, ptr %46, align 8, !tbaa !78
  %48 = icmp eq i32 %47, 0
  br i1 %48, label %49, label %52

49:                                               ; preds = %44
  %50 = load ptr, ptr @PyExc_ValueError, align 8, !tbaa !9
  %51 = call ptr (ptr, ptr, ...) @PyErr_Format(ptr noundef %50, ptr noundef @.str.69)
  store ptr null, ptr %3, align 8
  store i32 1, ptr %8, align 4
  br label %112

52:                                               ; preds = %44
  %53 = load i64, ptr %7, align 8, !tbaa !32
  %54 = icmp ule i64 %53, 16
  br i1 %54, label %55, label %59

55:                                               ; preds = %52
  %56 = load i64, ptr %7, align 8, !tbaa !32
  %57 = load ptr, ptr %6, align 8, !tbaa !76
  %58 = getelementptr inbounds nuw %struct.tagCDataObject, ptr %57, i32 0, i32 4
  store i64 %56, ptr %58, align 8, !tbaa !80
  br label %111

59:                                               ; preds = %52
  %60 = load ptr, ptr %6, align 8, !tbaa !76
  %61 = getelementptr inbounds nuw %struct.tagCDataObject, ptr %60, i32 0, i32 1
  %62 = load ptr, ptr %61, align 16, !tbaa !81
  %63 = load ptr, ptr %6, align 8, !tbaa !76
  %64 = getelementptr inbounds nuw %struct.tagCDataObject, ptr %63, i32 0, i32 8
  %65 = icmp ne ptr %62, %64
  br i1 %65, label %90, label %66

66:                                               ; preds = %59
  call void @llvm.lifetime.start.p0(i64 8, ptr %12) #10
  %67 = load i64, ptr %7, align 8, !tbaa !32
  %68 = call ptr @PyMem_Calloc(i64 noundef 1, i64 noundef %67)
  store ptr %68, ptr %12, align 8, !tbaa !3
  %69 = load ptr, ptr %12, align 8, !tbaa !3
  %70 = icmp eq ptr %69, null
  br i1 %70, label %71, label %73

71:                                               ; preds = %66
  %72 = call ptr @PyErr_NoMemory()
  store ptr %72, ptr %3, align 8
  store i32 1, ptr %8, align 4
  br label %87

73:                                               ; preds = %66
  %74 = load ptr, ptr %12, align 8, !tbaa !3
  %75 = load ptr, ptr %6, align 8, !tbaa !76
  %76 = getelementptr inbounds nuw %struct.tagCDataObject, ptr %75, i32 0, i32 1
  %77 = load ptr, ptr %76, align 16, !tbaa !81
  %78 = load ptr, ptr %6, align 8, !tbaa !76
  %79 = getelementptr inbounds nuw %struct.tagCDataObject, ptr %78, i32 0, i32 4
  %80 = load i64, ptr %79, align 8, !tbaa !80
  call void @llvm.memmove.p0.p0.i64(ptr align 1 %74, ptr align 1 %77, i64 %80, i1 false)
  %81 = load ptr, ptr %12, align 8, !tbaa !3
  %82 = load ptr, ptr %6, align 8, !tbaa !76
  %83 = getelementptr inbounds nuw %struct.tagCDataObject, ptr %82, i32 0, i32 1
  store ptr %81, ptr %83, align 16, !tbaa !81
  %84 = load i64, ptr %7, align 8, !tbaa !32
  %85 = load ptr, ptr %6, align 8, !tbaa !76
  %86 = getelementptr inbounds nuw %struct.tagCDataObject, ptr %85, i32 0, i32 4
  store i64 %84, ptr %86, align 8, !tbaa !80
  store i32 0, ptr %8, align 4
  br label %87

87:                                               ; preds = %73, %71
  call void @llvm.lifetime.end.p0(i64 8, ptr %12) #10
  %88 = load i32, ptr %8, align 4
  switch i32 %88, label %112 [
    i32 0, label %89
  ]

89:                                               ; preds = %87
  br label %110

90:                                               ; preds = %59
  call void @llvm.lifetime.start.p0(i64 8, ptr %13) #10
  %91 = load ptr, ptr %6, align 8, !tbaa !76
  %92 = getelementptr inbounds nuw %struct.tagCDataObject, ptr %91, i32 0, i32 1
  %93 = load ptr, ptr %92, align 16, !tbaa !81
  %94 = load i64, ptr %7, align 8, !tbaa !32
  %95 = call ptr @PyMem_Realloc(ptr noundef %93, i64 noundef %94)
  store ptr %95, ptr %13, align 8, !tbaa !3
  %96 = load ptr, ptr %13, align 8, !tbaa !3
  %97 = icmp eq ptr %96, null
  br i1 %97, label %98, label %100

98:                                               ; preds = %90
  %99 = call ptr @PyErr_NoMemory()
  store ptr %99, ptr %3, align 8
  store i32 1, ptr %8, align 4
  br label %107

100:                                              ; preds = %90
  %101 = load ptr, ptr %13, align 8, !tbaa !3
  %102 = load ptr, ptr %6, align 8, !tbaa !76
  %103 = getelementptr inbounds nuw %struct.tagCDataObject, ptr %102, i32 0, i32 1
  store ptr %101, ptr %103, align 16, !tbaa !81
  %104 = load i64, ptr %7, align 8, !tbaa !32
  %105 = load ptr, ptr %6, align 8, !tbaa !76
  %106 = getelementptr inbounds nuw %struct.tagCDataObject, ptr %105, i32 0, i32 4
  store i64 %104, ptr %106, align 8, !tbaa !80
  store i32 0, ptr %8, align 4
  br label %107

107:                                              ; preds = %100, %98
  call void @llvm.lifetime.end.p0(i64 8, ptr %13) #10
  %108 = load i32, ptr %8, align 4
  switch i32 %108, label %112 [
    i32 0, label %109
  ]

109:                                              ; preds = %107
  br label %110

110:                                              ; preds = %109, %89
  br label %111

111:                                              ; preds = %110, %55
  store ptr @_Py_NoneStruct, ptr %3, align 8
  store i32 1, ptr %8, align 4
  br label %112

112:                                              ; preds = %111, %107, %87, %49, %38, %30, %26
  call void @llvm.lifetime.end.p0(i64 4, ptr %11) #10
  call void @llvm.lifetime.end.p0(i64 8, ptr %10) #10
  call void @llvm.lifetime.end.p0(i64 8, ptr %9) #10
  br label %113

113:                                              ; preds = %112, %17
  call void @llvm.lifetime.end.p0(i64 8, ptr %7) #10
  call void @llvm.lifetime.end.p0(i64 8, ptr %6) #10
  %114 = load ptr, ptr %3, align 8
  ret ptr %114
}