; Function Attrs: nounwind uwtable
define internal ptr @resize(ptr noundef readonly captures(none) %0, ptr noundef %1) #0 {
  %3 = alloca ptr, align 8
  %4 = alloca i64, align 8
  call void @llvm.lifetime.start.p0(i64 8, ptr nonnull %3) #10
  call void @llvm.lifetime.start.p0(i64 8, ptr nonnull %4) #10
  %5 = call i32 (ptr, ptr, ...) @PyArg_ParseTuple(ptr noundef %1, ptr noundef nonnull @.str.66, ptr noundef nonnull %3, ptr noundef nonnull %4) #10
  %.not = icmp eq i32 %5, 0
  br i1 %.not, label %63, label %6

6:                                                ; preds = %2
  %7 = getelementptr i8, ptr %0, i64 32
  %.val23 = load ptr, ptr %7, align 8, !tbaa !56
  %8 = load ptr, ptr %3, align 8, !tbaa !67
  %9 = getelementptr i8, ptr %8, i64 8
  %.val = load ptr, ptr %9, align 8, !tbaa !30
  %10 = getelementptr inbounds nuw i8, ptr %.val23, i64 40
  %11 = load ptr, ptr %10, align 8, !tbaa !21
  %12 = call i32 @PyObject_IsInstance(ptr noundef %.val, ptr noundef %11) #10
  %.not.i.i = icmp eq i32 %12, 0
  br i1 %.not.i.i, label %17, label %13

13:                                               ; preds = %6
  %14 = load ptr, ptr %10, align 8, !tbaa !21
  %15 = call ptr @PyObject_GetTypeData(ptr noundef %.val, ptr noundef %14) #10
  %16 = load i32, ptr %15, align 8, !tbaa !22
  %.not8.i.i = icmp eq i32 %16, 0
  br i1 %.not8.i.i, label %17, label %PyStgInfo_FromObject.exit

17:                                               ; preds = %6, %13
  %18 = load ptr, ptr @PyExc_TypeError, align 8, !tbaa !3
  call void @PyErr_SetString(ptr noundef %18, ptr noundef nonnull @.str.67) #10
  br label %63

PyStgInfo_FromObject.exit:                        ; preds = %13
  %19 = load i64, ptr %4, align 8, !tbaa !64
  %20 = getelementptr inbounds nuw i8, ptr %15, i64 8
  %21 = load i64, ptr %20, align 8, !tbaa !45
  %22 = icmp slt i64 %19, %21
  br i1 %22, label %23, label %26

23:                                               ; preds = %PyStgInfo_FromObject.exit
  %24 = load ptr, ptr @PyExc_ValueError, align 8, !tbaa !3
  %25 = call ptr (ptr, ptr, ...) @PyErr_Format(ptr noundef %24, ptr noundef nonnull @.str.68, i64 noundef %21) #10
  br label %63

26:                                               ; preds = %PyStgInfo_FromObject.exit
  %27 = load ptr, ptr %3, align 8, !tbaa !67
  %28 = getelementptr inbounds nuw i8, ptr %27, i64 24
  %29 = load i32, ptr %28, align 8, !tbaa !69
  %30 = icmp eq i32 %29, 0
  br i1 %30, label %31, label %34

31:                                               ; preds = %26
  %32 = load ptr, ptr @PyExc_ValueError, align 8, !tbaa !3
  %33 = call ptr (ptr, ptr, ...) @PyErr_Format(ptr noundef %32, ptr noundef nonnull @.str.69) #10
  br label %63

34:                                               ; preds = %26
  %35 = icmp ult i64 %19, 17
  br i1 %35, label %36, label %38

36:                                               ; preds = %34
  %37 = getelementptr inbounds nuw i8, ptr %27, i64 40
  store i64 %19, ptr %37, align 8, !tbaa !71
  br label %63

38:                                               ; preds = %34
  %39 = getelementptr inbounds nuw i8, ptr %27, i64 16
  %40 = load ptr, ptr %39, align 16, !tbaa !72
  %41 = getelementptr inbounds nuw i8, ptr %27, i64 80
  %.not20 = icmp eq ptr %40, %41
  br i1 %.not20, label %42, label %55

42:                                               ; preds = %38
  %43 = call ptr @PyMem_Calloc(i64 noundef 1, i64 noundef %19) #10
  %.not21 = icmp eq ptr %43, null
  br i1 %.not21, label %.thread, label %45

.thread:                                          ; preds = %42
  %44 = call ptr @PyErr_NoMemory() #10
  br label %63

45:                                               ; preds = %42
  %46 = load ptr, ptr %3, align 8, !tbaa !67
  %47 = getelementptr inbounds nuw i8, ptr %46, i64 16
  %48 = load ptr, ptr %47, align 16, !tbaa !72
  %49 = getelementptr inbounds nuw i8, ptr %46, i64 40
  %50 = load i64, ptr %49, align 8, !tbaa !71
  call void @llvm.memmove.p0.p0.i64(ptr nonnull align 1 %43, ptr align 1 %48, i64 %50, i1 false)
  %51 = load ptr, ptr %3, align 8, !tbaa !67
  %52 = getelementptr inbounds nuw i8, ptr %51, i64 16
  store ptr %43, ptr %52, align 16, !tbaa !72
  %53 = load i64, ptr %4, align 8, !tbaa !64
  %54 = getelementptr inbounds nuw i8, ptr %51, i64 40
  store i64 %53, ptr %54, align 8, !tbaa !71
  br label %63

55:                                               ; preds = %38
  %56 = call ptr @PyMem_Realloc(ptr noundef %40, i64 noundef %19) #10
  %.not22 = icmp eq ptr %56, null
  br i1 %.not22, label %.thread27, label %58

.thread27:                                        ; preds = %55
  %57 = call ptr @PyErr_NoMemory() #10
  br label %63

58:                                               ; preds = %55
  %59 = load ptr, ptr %3, align 8, !tbaa !67
  %60 = getelementptr inbounds nuw i8, ptr %59, i64 16
  store ptr %56, ptr %60, align 16, !tbaa !72
  %61 = load i64, ptr %4, align 8, !tbaa !64
  %62 = getelementptr inbounds nuw i8, ptr %59, i64 40
  store i64 %61, ptr %62, align 8, !tbaa !71
  br label %63

63:                                               ; preds = %17, %23, %31, %.thread, %.thread27, %58, %45, %36, %2
  %.0 = phi ptr [ null, %2 ], [ null, %17 ], [ null, %23 ], [ null, %31 ], [ %44, %.thread ], [ %57, %.thread27 ], [ @_Py_NoneStruct, %58 ], [ @_Py_NoneStruct, %45 ], [ @_Py_NoneStruct, %36 ]
  call void @llvm.lifetime.end.p0(i64 8, ptr nonnull %4) #10
  call void @llvm.lifetime.end.p0(i64 8, ptr nonnull %3) #10
  ret ptr %.0
}